/*
    Copyright (c) 2005-2020 Intel Corporation

    Licensed under the Apache License, Version 2.0 (the "License");
    you may not use this file except in compliance with the License.
    You may obtain a copy of the License at

        http://www.apache.org/licenses/LICENSE-2.0

    Unless required by applicable law or agreed to in writing, software
    distributed under the License is distributed on an "AS IS" BASIS,
    WITHOUT WARRANTIES OR CONDITIONS OF ANY KIND, either express or implied.
    See the License for the specific language governing permissions and
    limitations under the License.
*/

#include "tbb/tbb_config.h"

__TBB_SYMBOL( _ZN3rml8internal14thread_monitor6launchEPFPvS2_ES2_m )
__TBB_SYMBOL( _ZN3tbb10interface518reader_writer_lock10start_readEPNS1_16scoped_lock_readE )
__TBB_SYMBOL( _ZN3tbb10interface518reader_writer_lock11start_writeEPNS1_11scoped_lockE )
__TBB_SYMBOL( _ZN3tbb10interface518reader_writer_lock15set_next_writerEPNS1_11scoped_lockE )
__TBB_SYMBOL( _ZN3tbb10interface518reader_writer_lock15unblock_readersEv )
__TBB_SYMBOL( _ZN3tbb10interface518reader_writer_lock8end_readEv )
__TBB_SYMBOL( _ZN3tbb10interface518reader_writer_lock9end_writeEPNS1_11scoped_lockE )
__TBB_SYMBOL( _ZN3tbb10interface623task_scheduler_observerD0Ev )
__TBB_SYMBOL( _ZN3tbb10interface623task_scheduler_observerD2Ev )
__TBB_SYMBOL( _ZN3tbb10interface78internal14delegated_task7executeEv )
__TBB_SYMBOL( _ZN3tbb10interface78internal14delegated_taskD0Ev )
__TBB_SYMBOL( _ZN3tbb10interface78internal14delegated_taskD2Ev )
__TBB_SYMBOL( _ZN3tbb10interface78internal9wait_task7executeEv )
__TBB_SYMBOL( _ZN3tbb10interface78internal9wait_taskD0Ev )
__TBB_SYMBOL( _ZN3tbb13tbb_exceptionD0Ev )
__TBB_SYMBOL( _ZN3tbb13tbb_exceptionD2Ev )
__TBB_SYMBOL( _ZN3tbb15SyncObj_MailboxE )
__TBB_SYMBOL( _ZN3tbb18SyncObj_TaskStreamE )
__TBB_SYMBOL( _ZN3tbb18SyncType_SchedulerE )
__TBB_SYMBOL( _ZN3tbb18captured_exceptionC2ERKS0_ )
__TBB_SYMBOL( _ZN3tbb18task_group_context13register_withEPNS_8internal17generic_schedulerE )
__TBB_SYMBOL( _ZN3tbb18task_group_context16copy_fp_settingsERKS0_ )
__TBB_SYMBOL( _ZN3tbb18task_group_context7bind_toEPNS_8internal17generic_schedulerE )
__TBB_SYMBOL( _ZN3tbb19SyncType_GlobalLockE )
__TBB_SYMBOL( _ZN3tbb19task_scheduler_init18internal_terminateEb )
__TBB_SYMBOL( _ZN3tbb19thread_bound_filter21internal_process_itemEb )
__TBB_SYMBOL( _ZN3tbb20SyncObj_ContextsListE )
__TBB_SYMBOL( _ZN3tbb22SyncObj_MasterTaskPoolE )
__TBB_SYMBOL( _ZN3tbb22SyncObj_SchedulersListE )
__TBB_SYMBOL( _ZN3tbb22SyncObj_TaskReturnListE )
__TBB_SYMBOL( _ZN3tbb22SyncObj_WorkerTaskPoolE )
__TBB_SYMBOL( _ZN3tbb24SyncObj_TaskPoolSpinningE )
__TBB_SYMBOL( _ZN3tbb24SyncObj_TaskStealingLoopE )
__TBB_SYMBOL( _ZN3tbb27SyncObj_WorkerLifeCycleMgmtE )
__TBB_SYMBOL( _ZN3tbb31SyncObj_SchedulerInitializationE )
__TBB_SYMBOL( _ZN3tbb4taskD0Ev )
__TBB_SYMBOL( _ZN3tbb4taskD2Ev )
__TBB_SYMBOL( _ZN3tbb6filter13has_more_workEv )
__TBB_SYMBOL( _ZN3tbb6filter8finalizeEPv )
__TBB_SYMBOL( _ZN3tbb6filterD0Ev )
__TBB_SYMBOL( _ZN3tbb6filterD1Ev )
__TBB_SYMBOL( _ZN3tbb8internal10stage_task7executeEv )
__TBB_SYMBOL( _ZN3tbb8internal10stage_taskD0Ev )
__TBB_SYMBOL( _ZN3tbb8internal10stage_taskD2Ev )
__TBB_SYMBOL( _ZN3tbb8internal11mail_outbox12internal_popEl )
__TBB_SYMBOL( _ZN3tbb8internal11micro_queue10abort_pushEmRNS0_24concurrent_queue_base_v3E )
__TBB_SYMBOL( _ZN3tbb8internal11micro_queue12make_invalidEm )
__TBB_SYMBOL( _ZN3tbb8internal11micro_queue3popEPvmRNS0_21concurrent_queue_baseE )
__TBB_SYMBOL( _ZN3tbb8internal11micro_queue3popEPvmRNS0_24concurrent_queue_base_v3E )
__TBB_SYMBOL( _ZN3tbb8internal11micro_queue4pushEPKvmRNS0_21concurrent_queue_baseE )
__TBB_SYMBOL( _ZN3tbb8internal11micro_queue4pushEPKvmRNS0_24concurrent_queue_base_v3ENS4_14copy_specificsE )
__TBB_SYMBOL( _ZN3tbb8internal11micro_queue6assignERKS1_RNS0_24concurrent_queue_base_v3ENS4_14copy_specificsE )
__TBB_SYMBOL( _ZN3tbb8internal11micro_queue9make_copyERNS0_24concurrent_queue_base_v3EPKNS2_4pageEmmRmNS2_14copy_specificsE )
__TBB_SYMBOL( _ZN3tbb8internal11task_streamILi3EE10initializeEj )
__TBB_SYMBOL( _ZN3tbb8internal11task_streamILi3EE3popEiRj )
__TBB_SYMBOL( _ZN3tbb8internal11task_streamILi3EED2Ev )
__TBB_SYMBOL( _ZN3tbb8internal12PrintVersionEv )
__TBB_SYMBOL( _ZN3tbb8internal12dynamic_linkEPKcPKNS0_23dynamic_link_descriptorEmPPvi )
__TBB_SYMBOL( _ZN3tbb8internal12dynamic_loadEPKcPKNS0_23dynamic_link_descriptorEm )
__TBB_SYMBOL( _ZN3tbb8internal12input_buffer11return_itemERNS0_9task_infoEb )
__TBB_SYMBOL( _ZN3tbb8internal12input_buffer4growEm )
__TBB_SYMBOL( _ZN3tbb8internal12input_buffer9note_doneINS0_10stage_taskEEEvmRT_ )
__TBB_SYMBOL( _ZN3tbb8internal12input_buffer9put_tokenERNS0_9task_infoEb )
__TBB_SYMBOL( _ZN3tbb8internal12input_bufferD2Ev )
__TBB_SYMBOL( _ZN3tbb8internal13function_taskINS_4flow11interface105graph13spawn_functorEE7executeEv )
__TBB_SYMBOL( _ZN3tbb8internal13function_taskINS_4flow11interface105graph13spawn_functorEED0Ev )
__TBB_SYMBOL( _ZN3tbb8internal13numa_topology10initializeEv )
__TBB_SYMBOL( _ZN3tbb8internal13numa_topology19initialization_implEv )
__TBB_SYMBOL( _ZN3tbb8internal13observer_list10remove_refEPNS0_14observer_proxyE )
__TBB_SYMBOL( _ZN3tbb8internal13observer_list24do_notify_exit_observersEPNS0_14observer_proxyEb )
__TBB_SYMBOL( _ZN3tbb8internal13observer_list25do_notify_entry_observersERPNS0_14observer_proxyEb )
__TBB_SYMBOL( _ZN3tbb8internal13observer_list5clearEv )
__TBB_SYMBOL( _ZN3tbb8internal13observer_list6insertEPNS0_14observer_proxyE )
__TBB_SYMBOL( _ZN3tbb8internal13observer_list6removeEPNS0_14observer_proxyE )
__TBB_SYMBOL( _ZN3tbb8internal14dynamic_unlinkEPv )
__TBB_SYMBOL( _ZN3tbb8internal14observer_proxy15get_v6_observerEv )
__TBB_SYMBOL( _ZN3tbb8internal14observer_proxy9is_globalEv )
__TBB_SYMBOL( _ZN3tbb8internal14observer_proxyC1ERNS0_26task_scheduler_observer_v3E )
__TBB_SYMBOL( _ZN3tbb8internal14observer_proxyC2ERNS0_26task_scheduler_observer_v3E )
__TBB_SYMBOL( _ZN3tbb8internal15affinity_helper21protect_affinity_maskEb )
__TBB_SYMBOL( _ZN3tbb8internal15affinity_helper7dismissEv )
__TBB_SYMBOL( _ZN3tbb8internal15affinity_helperD1Ev )
__TBB_SYMBOL( _ZN3tbb8internal15affinity_helperD2Ev )
__TBB_SYMBOL( _ZN3tbb8internal16custom_schedulerINS0_20IntelSchedulerTraitsEE12wait_for_allERNS_4taskEPS4_ )
__TBB_SYMBOL( _ZN3tbb8internal16custom_schedulerINS0_20IntelSchedulerTraitsEE18allocate_schedulerERNS0_6marketEb )
__TBB_SYMBOL( _ZN3tbb8internal16custom_schedulerINS0_20IntelSchedulerTraitsEE18local_wait_for_allERNS_4taskEPS4_ )
__TBB_SYMBOL( _ZN3tbb8internal16custom_schedulerINS0_20IntelSchedulerTraitsEE19process_bypass_loopERNS0_20context_guard_helperILb0EEEPNS_4taskEl )
__TBB_SYMBOL( _ZN3tbb8internal16custom_schedulerINS0_20IntelSchedulerTraitsEE21receive_or_steal_taskERll )
__TBB_SYMBOL( _ZN3tbb8internal16custom_schedulerINS0_20IntelSchedulerTraitsEED0Ev )
__TBB_SYMBOL( _ZN3tbb8internal16custom_schedulerINS0_22DefaultSchedulerTraitsEE12wait_for_allERNS_4taskEPS4_ )
__TBB_SYMBOL( _ZN3tbb8internal16custom_schedulerINS0_22DefaultSchedulerTraitsEE18allocate_schedulerERNS0_6marketEb )
__TBB_SYMBOL( _ZN3tbb8internal16custom_schedulerINS0_22DefaultSchedulerTraitsEE18local_wait_for_allERNS_4taskEPS4_ )
__TBB_SYMBOL( _ZN3tbb8internal16custom_schedulerINS0_22DefaultSchedulerTraitsEE19process_bypass_loopERNS0_20context_guard_helperILb1EEEPNS_4taskEl )
__TBB_SYMBOL( _ZN3tbb8internal16custom_schedulerINS0_22DefaultSchedulerTraitsEE21receive_or_steal_taskERll )
__TBB_SYMBOL( _ZN3tbb8internal16custom_schedulerINS0_22DefaultSchedulerTraitsEED0Ev )
__TBB_SYMBOL( _ZN3tbb8internal16pipeline_cleanerD2Ev )
__TBB_SYMBOL( _ZN3tbb8internal17generic_scheduler10steal_taskEl )
__TBB_SYMBOL( _ZN3tbb8internal17generic_scheduler11local_spawnEPNS_4taskERS3_ )
__TBB_SYMBOL( _ZN3tbb8internal17generic_scheduler12attach_arenaEPNS0_5arenaEmb )
__TBB_SYMBOL( _ZN3tbb8internal17generic_scheduler12reload_tasksERPNS_4taskERPS3_ll )
__TBB_SYMBOL( _ZN3tbb8internal17generic_scheduler12reload_tasksEl )
__TBB_SYMBOL( _ZN3tbb8internal17generic_scheduler13allocate_taskEmPNS_4taskEPNS_18task_group_contextE )
__TBB_SYMBOL( _ZN3tbb8internal17generic_scheduler13create_masterEPNS0_5arenaE )
__TBB_SYMBOL( _ZN3tbb8internal17generic_scheduler13create_workerERNS0_6marketEmb )
__TBB_SYMBOL( _ZN3tbb8internal17generic_scheduler14cleanup_masterEb )
__TBB_SYMBOL( _ZN3tbb8internal17generic_scheduler14cleanup_workerEPvb )
__TBB_SYMBOL( _ZN3tbb8internal17generic_scheduler15init_stack_infoEv )
__TBB_SYMBOL( _ZN3tbb8internal17generic_scheduler15steal_task_fromERNS0_10arena_slotEl )
__TBB_SYMBOL( _ZN3tbb8internal17generic_scheduler16get_mailbox_taskEl )
__TBB_SYMBOL( _ZN3tbb8internal17generic_scheduler16wait_until_emptyEv )
__TBB_SYMBOL( _ZN3tbb8internal17generic_scheduler16winnow_task_poolEl )
__TBB_SYMBOL( _ZN3tbb8internal17generic_scheduler17cleanup_schedulerEv )
__TBB_SYMBOL( _ZN3tbb8internal17generic_scheduler17nested_arena_exitEv )
__TBB_SYMBOL( _ZN3tbb8internal17generic_scheduler17prepare_task_poolEm )
__TBB_SYMBOL( _ZN3tbb8internal17generic_scheduler18nested_arena_entryEPNS0_5arenaEm )
__TBB_SYMBOL( _ZN3tbb8internal17generic_scheduler19spawn_root_and_waitERNS_4taskERPS2_ )
__TBB_SYMBOL( _ZN3tbb8internal17generic_scheduler20prepare_for_spawningEPNS_4taskE )
__TBB_SYMBOL( _ZN3tbb8internal17generic_scheduler24free_nonlocal_small_taskERNS_4taskE )
__TBB_SYMBOL( _ZN3tbb8internal17generic_scheduler25local_spawn_root_and_waitEPNS_4taskERS3_ )
__TBB_SYMBOL( _ZN3tbb8internal17generic_scheduler26cleanup_local_context_listEv )
__TBB_SYMBOL( _ZN3tbb8internal17generic_scheduler26propagate_task_group_stateIlEEvMNS_18task_group_contextET_RS3_S4_ )
__TBB_SYMBOL( _ZN3tbb8internal17generic_scheduler26propagate_task_group_stateImEEvMNS_18task_group_contextET_RS3_S4_ )
__TBB_SYMBOL( _ZN3tbb8internal17generic_scheduler31get_task_and_activate_task_poolEmml )
__TBB_SYMBOL( _ZN3tbb8internal17generic_scheduler5spawnERNS_4taskERPS2_ )
__TBB_SYMBOL( _ZN3tbb8internal17generic_scheduler7destroyEv )
__TBB_SYMBOL( _ZN3tbb8internal17generic_scheduler7enqueueERNS_4taskEPv )
__TBB_SYMBOL( _ZN3tbb8internal17generic_scheduler8get_taskEl )
__TBB_SYMBOL( _ZN3tbb8internal17generic_scheduler9free_taskILNS0_14free_task_hintE0EEEvRNS_4taskE )
__TBB_SYMBOL( _ZN3tbb8internal17generic_scheduler9free_taskILNS0_14free_task_hintE2EEEvRNS_4taskE )
__TBB_SYMBOL( _ZN3tbb8internal17generic_scheduler9free_taskILNS0_14free_task_hintE6EEEvRNS_4taskE )
__TBB_SYMBOL( _ZN3tbb8internal17generic_schedulerC2ERNS0_6marketEb )
__TBB_SYMBOL( _ZN3tbb8internal17generic_schedulerD0Ev )
__TBB_SYMBOL( _ZN3tbb8internal17tbb_exception_ptr7destroyEv )
__TBB_SYMBOL( _ZN3tbb8internal17tbb_exception_ptr8allocateERKNS_13tbb_exceptionE )
__TBB_SYMBOL( _ZN3tbb8internal17tbb_exception_ptr8allocateERNS_18captured_exceptionE )
__TBB_SYMBOL( _ZN3tbb8internal17tbb_exception_ptr8allocateEv )
__TBB_SYMBOL( _ZN3tbb8internal17tbb_exception_ptrC2ERKNS_18captured_exceptionE )
__TBB_SYMBOL( _ZN3tbb8internal18concurrent_monitor11cancel_waitERNS1_14thread_contextE )
__TBB_SYMBOL( _ZN3tbb8internal18concurrent_monitor12prepare_waitERNS1_14thread_contextEm )
__TBB_SYMBOL( _ZN3tbb8internal18concurrent_monitor14notify_relaxedINS0_13predicate_leqEEEvRKT_ )
__TBB_SYMBOL( _ZN3tbb8internal18concurrent_monitor14notify_relaxedINS_10interface78internal14delegated_taskEEEvRKT_ )
__TBB_SYMBOL( _ZN3tbb8internal18concurrent_monitor14thread_context4initEv )
__TBB_SYMBOL( _ZN3tbb8internal18concurrent_monitor17abort_all_relaxedEv )
__TBB_SYMBOL( _ZN3tbb8internal18concurrent_monitor18notify_all_relaxedEv )
__TBB_SYMBOL( _ZN3tbb8internal18concurrent_monitor18notify_one_relaxedEv )
__TBB_SYMBOL( _ZN3tbb8internal18concurrent_monitorD1Ev )
__TBB_SYMBOL( _ZN3tbb8internal18concurrent_monitorD2Ev )
__TBB_SYMBOL( _ZN3tbb8internal18dynamic_unlink_allEv )
__TBB_SYMBOL( _ZN3tbb8internal18fix_broken_rethrowEv )
__TBB_SYMBOL( _ZN3tbb8internal18init_dl_data_stateE )
__TBB_SYMBOL( _ZN3tbb8internal18pipeline_root_task7executeEv )
__TBB_SYMBOL( _ZN3tbb8internal18pipeline_root_taskD0Ev )
__TBB_SYMBOL( _ZN3tbb8internal19PrintRMLVersionInfoEPvPKc )
__TBB_SYMBOL( _ZN3tbb8internal19bind_thread_to_nodeEPNS0_15binding_handlerEii )
__TBB_SYMBOL( _ZN3tbb8internal19cpu_has_speculationEv )
__TBB_SYMBOL( _ZN3tbb8internal20AllocateSchedulerPtrE )
__TBB_SYMBOL( _ZN3tbb8internal20destroy_process_maskEv )
__TBB_SYMBOL( _ZN3tbb8internal21DefaultSystemPageSizeEv )
__TBB_SYMBOL( _ZN3tbb8internal21PrintExtraVersionInfoEPKcS2_z )
__TBB_SYMBOL( _ZN3tbb8internal21concurrent_queue_baseD0Ev )
__TBB_SYMBOL( _ZN3tbb8internal21concurrent_queue_baseD1Ev )
__TBB_SYMBOL( _ZN3tbb8internal21numa_binding_observer17on_scheduler_exitEb )
__TBB_SYMBOL( _ZN3tbb8internal21numa_binding_observer18on_scheduler_entryEb )
__TBB_SYMBOL( _ZN3tbb8internal21numa_binding_observerD0Ev )
__TBB_SYMBOL( _ZN3tbb8internal21numa_binding_observerD2Ev )
__TBB_SYMBOL( _ZN3tbb8internal21restore_affinity_maskEPNS0_15binding_handlerEi )
__TBB_SYMBOL( _ZN3tbb8internal22AvailableHwConcurrencyEv )
__TBB_SYMBOL( _ZN3tbb8internal22concurrent_vector_base13internal_growEmmmPFvPvmE )
__TBB_SYMBOL( _ZN3tbb8internal22concurrent_vector_base6helper14extend_segmentERS1_ )
__TBB_SYMBOL( _ZN3tbb8internal22concurrent_vector_base6helper27extend_segment_if_necessaryERS1_m )
__TBB_SYMBOL( _ZN3tbb8internal22init_dynamic_link_dataEv )
__TBB_SYMBOL( _ZN3tbb8internal23destroy_binding_handlerEPNS0_15binding_handlerE )
__TBB_SYMBOL( _ZN3tbb8internal23init_atomic_incrementerERNS_6atomicImEE )
__TBB_SYMBOL( _ZN3tbb8internal23initialize_cilk_interopEv )
__TBB_SYMBOL( _ZN3tbb8internal24DoOneTimeInitializationsEv )
__TBB_SYMBOL( _ZN3tbb8internal24concurrent_queue_base_v315internal_assignERKS1_NS1_14copy_specificsE )
__TBB_SYMBOL( _ZN3tbb8internal24concurrent_queue_base_v320internal_insert_itemEPKvNS1_14copy_specificsE )
__TBB_SYMBOL( _ZN3tbb8internal24concurrent_queue_base_v327internal_insert_if_not_fullEPKvNS1_14copy_specificsE )
__TBB_SYMBOL( _ZN3tbb8internal24concurrent_queue_base_v3D0Ev )
__TBB_SYMBOL( _ZN3tbb8internal24concurrent_queue_base_v3D1Ev )
__TBB_SYMBOL( _ZN3tbb8internal24destroy_binding_observerEPNS0_21numa_binding_observerE )
__TBB_SYMBOL( _ZN3tbb8internal24the_global_observer_listE )
__TBB_SYMBOL( _ZN3tbb8internal25concurrent_vector_base_v313internal_growEmmmPFvPvPKvmES4_ )
__TBB_SYMBOL( _ZN3tbb8internal25concurrent_vector_base_v36helper14enable_segmentERS1_mmb )
__TBB_SYMBOL( _ZN3tbb8internal25concurrent_vector_base_v36helper20extend_segment_tableERS1_m )
__TBB_SYMBOL( _ZN3tbb8internal25concurrent_vector_base_v36helper7cleanupEv )
__TBB_SYMBOL( _ZN3tbb8internal25concurrent_vector_base_v3D1Ev )
__TBB_SYMBOL( _ZN3tbb8internal25construct_binding_handlerEi )
__TBB_SYMBOL( _ZN3tbb8internal25micro_queue_pop_finalizerD2Ev )
__TBB_SYMBOL( _ZN3tbb8internal26construct_binding_observerEPNS_10interface710task_arenaEii )
__TBB_SYMBOL( _ZN3tbb8internal26task_scheduler_observer_v317on_scheduler_exitEb )
__TBB_SYMBOL( _ZN3tbb8internal26task_scheduler_observer_v318on_scheduler_entryEb )
__TBB_SYMBOL( _ZN3tbb8internal26task_scheduler_observer_v3D0Ev )
__TBB_SYMBOL( _ZN3tbb8internal26task_scheduler_observer_v3D2Ev )
__TBB_SYMBOL( _ZN3tbb8internal27initialize_handler_pointersEv )
__TBB_SYMBOL( _ZN3tbb8internal28gcc_rethrow_exception_brokenEv )
__TBB_SYMBOL( _ZN3tbb8internal30concurrent_queue_iterator_baseC1ERKNS0_21concurrent_queue_baseE )
__TBB_SYMBOL( _ZN3tbb8internal30concurrent_queue_iterator_baseD1Ev )
__TBB_SYMBOL( _ZN3tbb8internal31Scheduler_OneTimeInitializationEb )
__TBB_SYMBOL( _ZN3tbb8internal33ITT_DoUnsafeOneTimeInitializationEv )
__TBB_SYMBOL( _ZN3tbb8internal33concurrent_queue_iterator_base_v310initializeERKNS0_24concurrent_queue_base_v3Em )
__TBB_SYMBOL( _ZN3tbb8internal33concurrent_queue_iterator_base_v3C1ERKNS0_24concurrent_queue_base_v3E )
__TBB_SYMBOL( _ZN3tbb8internal33concurrent_queue_iterator_base_v3C1ERKNS0_24concurrent_queue_base_v3Em )
__TBB_SYMBOL( _ZN3tbb8internal33concurrent_queue_iterator_base_v3D1Ev )
__TBB_SYMBOL( _ZN3tbb8internal34initialize_cache_aligned_allocatorEv )
__TBB_SYMBOL( _ZN3tbb8internal35the_context_state_propagation_epochE )
__TBB_SYMBOL( _ZN3tbb8internal35the_context_state_propagation_mutexE )
__TBB_SYMBOL( _ZN3tbb8internal3rml11tbb_factory11make_serverERPNS1_10tbb_serverERNS1_10tbb_clientE )
__TBB_SYMBOL( _ZN3tbb8internal3rml11tbb_factory4openEv )
__TBB_SYMBOL( _ZN3tbb8internal3rml11tbb_factory5closeEv )
__TBB_SYMBOL( _ZN3tbb8internal3rml14private_server24request_close_connectionEb )
__TBB_SYMBOL( _ZN3tbb8internal3rml14private_server25adjust_job_count_estimateEi )
__TBB_SYMBOL( _ZN3tbb8internal3rml14private_server33independent_thread_number_changedEi )
__TBB_SYMBOL( _ZN3tbb8internal3rml14private_server5yieldEv )
__TBB_SYMBOL( _ZN3tbb8internal3rml14private_server9wake_someEi )
__TBB_SYMBOL( _ZN3tbb8internal3rml14private_serverC1ERNS1_10tbb_clientE )
__TBB_SYMBOL( _ZN3tbb8internal3rml14private_serverC2ERNS1_10tbb_clientE )
__TBB_SYMBOL( _ZN3tbb8internal3rml14private_serverD0Ev )
__TBB_SYMBOL( _ZN3tbb8internal3rml14private_serverD1Ev )
__TBB_SYMBOL( _ZN3tbb8internal3rml14private_serverD2Ev )
__TBB_SYMBOL( _ZN3tbb8internal3rml14private_worker14release_handleEmb )
__TBB_SYMBOL( _ZN3tbb8internal3rml14private_worker14start_shutdownEv )
__TBB_SYMBOL( _ZN3tbb8internal3rml14private_worker14thread_routineEPv )
__TBB_SYMBOL( _ZN3tbb8internal3rml14private_worker14wake_or_launchEv )
__TBB_SYMBOL( _ZN3tbb8internal3rml14private_worker3runEv )
__TBB_SYMBOL( _ZN3tbb8internal3rml19make_private_serverERNS1_10tbb_clientE )
__TBB_SYMBOL( _ZN3tbb8internal5arena10free_arenaEv )
__TBB_SYMBOL( _ZN3tbb8internal5arena12enqueue_taskERNS_4taskElRNS0_10FastRandomE )
__TBB_SYMBOL( _ZN3tbb8internal5arena14allocate_arenaERNS0_6marketEjj )
__TBB_SYMBOL( _ZN3tbb8internal5arena14is_out_of_workEv )
__TBB_SYMBOL( _ZN3tbb8internal5arena16occupy_free_slotILb0EEEmRNS0_17generic_schedulerE )
__TBB_SYMBOL( _ZN3tbb8internal5arena18advertise_new_workILNS1_13new_work_typeE2EEEvv )
__TBB_SYMBOL( _ZN3tbb8internal5arena18has_enqueued_tasksEv )
__TBB_SYMBOL( _ZN3tbb8internal5arena22orphan_offloaded_tasksERNS0_17generic_schedulerE )
__TBB_SYMBOL( _ZN3tbb8internal5arena24restore_priority_if_needEv )
__TBB_SYMBOL( _ZN3tbb8internal5arena25occupy_free_slot_in_rangeERNS0_17generic_schedulerEmm )
__TBB_SYMBOL( _ZN3tbb8internal5arena7processERNS0_17generic_schedulerE )
__TBB_SYMBOL( _ZN3tbb8internal5arenaC1ERNS0_6marketEjj )
__TBB_SYMBOL( _ZN3tbb8internal5arenaC2ERNS0_6marketEjj )
__TBB_SYMBOL( _ZN3tbb8internal6market12create_arenaEiim )
__TBB_SYMBOL( _ZN3tbb8internal6market12detach_arenaERNS0_5arenaE )
__TBB_SYMBOL( _ZN3tbb8internal6market13adjust_demandERNS0_5arenaEi )
__TBB_SYMBOL( _ZN3tbb8internal6market13arena_in_needEPNS0_5arenaE )
__TBB_SYMBOL( _ZN3tbb8internal6market13arena_in_needERNS0_14intrusive_listINS0_5arenaEEEPS3_ )
__TBB_SYMBOL( _ZN3tbb8internal6market13global_marketEbjm )
__TBB_SYMBOL( _ZN3tbb8internal6market14create_one_jobEv )
__TBB_SYMBOL( _ZN3tbb8internal6market14theMarketMutexE )
__TBB_SYMBOL( _ZN3tbb8internal6market16is_arena_in_listERNS0_14intrusive_listINS0_5arenaEEEPS3_ )
__TBB_SYMBOL( _ZN3tbb8internal6market16update_allotmentERNS0_14intrusive_listINS0_5arenaEEEii )
__TBB_SYMBOL( _ZN3tbb8internal6market16update_allotmentEl )
__TBB_SYMBOL( _ZN3tbb8internal6market17try_destroy_arenaEPNS0_5arenaEm )
__TBB_SYMBOL( _ZN3tbb8internal6market20lower_arena_priorityERNS0_5arenaElm )
__TBB_SYMBOL( _ZN3tbb8internal6market21app_parallelism_limitEv )
__TBB_SYMBOL( _ZN3tbb8internal6market21update_arena_priorityERNS0_5arenaEl )
__TBB_SYMBOL( _ZN3tbb8internal6market22insert_arena_into_listERNS0_5arenaE )
__TBB_SYMBOL( _ZN3tbb8internal6market22remove_arena_from_listERNS0_5arenaE )
__TBB_SYMBOL( _ZN3tbb8internal6market22set_active_num_workersEj )
__TBB_SYMBOL( _ZN3tbb8internal6market22update_workers_requestEv )
__TBB_SYMBOL( _ZN3tbb8internal6market25update_arena_top_priorityERNS0_5arenaEl )
__TBB_SYMBOL( _ZN3tbb8internal6market26propagate_task_group_stateIlEEbMNS_18task_group_contextET_RS3_S4_ )
__TBB_SYMBOL( _ZN3tbb8internal6market26propagate_task_group_stateImEEbMNS_18task_group_contextET_RS3_S4_ )
__TBB_SYMBOL( _ZN3tbb8internal6market28acknowledge_close_connectionEv )
__TBB_SYMBOL( _ZN3tbb8internal6market28enable_mandatory_concurrencyEPNS0_5arenaE )
__TBB_SYMBOL( _ZN3tbb8internal6market29mandatory_concurrency_disableEPNS0_5arenaE )
__TBB_SYMBOL( _ZN3tbb8internal6market33enable_mandatory_concurrency_implEPNS0_5arenaE )
__TBB_SYMBOL( _ZN3tbb8internal6market34disable_mandatory_concurrency_implEPNS0_5arenaE )
__TBB_SYMBOL( _ZN3tbb8internal6market7cleanupERN3rml3jobE )
__TBB_SYMBOL( _ZN3tbb8internal6market7destroyEv )
__TBB_SYMBOL( _ZN3tbb8internal6market7processERN3rml3jobE )
__TBB_SYMBOL( _ZN3tbb8internal6market7releaseEbb )
__TBB_SYMBOL( _ZN3tbb8internal6market9theMarketE )
__TBB_SYMBOL( _ZN3tbb8internal6marketC1Ejjm )
__TBB_SYMBOL( _ZN3tbb8internal6marketC2Ejjm )
__TBB_SYMBOL( _ZN3tbb8internal7handlesE )
__TBB_SYMBOL( _ZN3tbb8internal8governor12tls_value_ofEPNS0_17generic_schedulerE )
__TBB_SYMBOL( _ZN3tbb8internal8governor13UsePrivateRMLE )
__TBB_SYMBOL( _ZN3tbb8internal8governor13one_time_initEv )
__TBB_SYMBOL( _ZN3tbb8internal8governor14auto_terminateEPv )
__TBB_SYMBOL( _ZN3tbb8internal8governor14init_schedulerEimb )
__TBB_SYMBOL( _ZN3tbb8internal8governor15DefaultPageSizeE )
__TBB_SYMBOL( _ZN3tbb8internal8governor16assume_schedulerEPNS0_17generic_schedulerE )
__TBB_SYMBOL( _ZN3tbb8internal8governor16stack_op_handlerE19__cilk_tbb_stack_opPv )
__TBB_SYMBOL( _ZN3tbb8internal8governor17acquire_resourcesEv )
__TBB_SYMBOL( _ZN3tbb8internal8governor17create_rml_serverERNS0_3rml10tbb_clientE )
__TBB_SYMBOL( _ZN3tbb8internal8governor17is_rethrow_brokenE )
__TBB_SYMBOL( _ZN3tbb8internal8governor17release_resourcesEv )
__TBB_SYMBOL( _ZN3tbb8internal8governor18print_version_infoEv )
__TBB_SYMBOL( _ZN3tbb8internal8governor19init_scheduler_weakEv )
__TBB_SYMBOL( _ZN3tbb8internal8governor19terminate_schedulerEPNS0_17generic_schedulerEb )
__TBB_SYMBOL( _ZN3tbb8internal8governor19theRMLServerFactoryE )
__TBB_SYMBOL( _ZN3tbb8internal8governor22DefaultNumberOfThreadsE )
__TBB_SYMBOL( _ZN3tbb8internal8governor22initialize_rml_factoryEv )
__TBB_SYMBOL( _ZN3tbb8internal8governor22is_speculation_enabledE )
__TBB_SYMBOL( _ZN3tbb8internal8governor24does_client_join_workersERKNS0_3rml10tbb_clientE )
__TBB_SYMBOL( _ZN3tbb8internal8governor6is_setEPNS0_17generic_schedulerE )
__TBB_SYMBOL( _ZN3tbb8internal8governor6theTLSE )
__TBB_SYMBOL( _ZN3tbb8internal8governor7sign_onEPNS0_17generic_schedulerE )
__TBB_SYMBOL( _ZN3tbb8internal8governor8sign_offEPNS0_17generic_schedulerE )
__TBB_SYMBOL( _ZN3tbb8internal9schedulerD0Ev )
__TBB_SYMBOL( _ZN3tbb8internal9schedulerD1Ev )
__TBB_SYMBOL( _ZN3tbb8internal9schedulerD2Ev )
__TBB_SYMBOL( _ZN3tbb8pipeline13clear_filtersEv )
__TBB_SYMBOL( _ZNK3tbb8internal15control_storage12active_valueEv )
__TBB_SYMBOL( _ZNK3tbb8internal15control_storage22is_first_arg_preferredEmm )
__TBB_SYMBOL( _ZNK3tbb8internal18stack_size_control12apply_activeEv )
__TBB_SYMBOL( _ZNK3tbb8internal18stack_size_control13default_valueEv )
__TBB_SYMBOL( _ZNK3tbb8internal27allowed_parallelism_control12active_valueEv )
__TBB_SYMBOL( _ZNK3tbb8internal27allowed_parallelism_control12apply_activeEv )
__TBB_SYMBOL( _ZNK3tbb8internal27allowed_parallelism_control13default_valueEv )
__TBB_SYMBOL( _ZNK3tbb8internal27allowed_parallelism_control22is_first_arg_preferredEmm )
__TBB_SYMBOL( _ZNK3tbb8internal3rml11tbb_factory21call_with_server_infoEPFvPvPKcES3_ )
__TBB_SYMBOL( _ZNK3tbb8internal3rml14private_server19default_concurrencyEv )
__TBB_SYMBOL( _ZNK3tbb8internal3rml14private_server7versionEv )
__TBB_SYMBOL( _ZNK3tbb8internal6market13max_job_countEv )
__TBB_SYMBOL( _ZNK3tbb8internal6market14min_stack_sizeEv )
__TBB_SYMBOL( _ZNK3tbb8internal6market6policyEv )
__TBB_SYMBOL( _ZNK3tbb8internal6market7versionEv )
__TBB_SYMBOL( _ZNSt11_Deque_baseIPN3tbb4taskENS0_13tbb_allocatorIS2_EEE15_M_create_nodesEPPS2_S7_ )
__TBB_SYMBOL( _ZNSt11_Deque_baseIPN3tbb4taskENS0_13tbb_allocatorIS2_EEE17_M_initialize_mapEm )
__TBB_SYMBOL( _ZNSt15__exception_ptr12__dest_thunkIN3tbb18captured_exceptionEEEvPv )
__TBB_SYMBOL( _ZNSt5dequeIPN3tbb4taskENS0_13tbb_allocatorIS2_EEE16_M_push_back_auxIJRKS2_EEEvDpOT_ )
__TBB_SYMBOL( _ZNSt5dequeIPN3tbb4taskENS0_13tbb_allocatorIS2_EEE17_M_reallocate_mapEmb )
__TBB_SYMBOL( _ZTIN3tbb10interface58internal9task_baseE )
__TBB_SYMBOL( _ZTIN3tbb10interface623task_scheduler_observerE )
__TBB_SYMBOL( _ZTIN3tbb10interface78internal13delegate_baseE )
__TBB_SYMBOL( _ZTIN3tbb10interface78internal14delegated_taskE )
__TBB_SYMBOL( _ZTIN3tbb10interface78internal18delegated_functionINS_4flow11interface105graph13spawn_functorEvEE )
__TBB_SYMBOL( _ZTIN3tbb10interface78internal9wait_taskE )
__TBB_SYMBOL( _ZTIN3tbb8internal10stage_taskE )
__TBB_SYMBOL( _ZTIN3tbb8internal11padded_baseINS0_15control_storageELm128ELm32EEE )
__TBB_SYMBOL( _ZTIN3tbb8internal13function_taskINS_4flow11interface105graph13spawn_functorEEE )
__TBB_SYMBOL( _ZTIN3tbb8internal15control_storageE )
__TBB_SYMBOL( _ZTIN3tbb8internal15scheduler_stateE )
__TBB_SYMBOL( _ZTIN3tbb8internal16custom_schedulerINS0_20IntelSchedulerTraitsEEE )
__TBB_SYMBOL( _ZTIN3tbb8internal16custom_schedulerINS0_22DefaultSchedulerTraitsEEE )
__TBB_SYMBOL( _ZTIN3tbb8internal17generic_schedulerE )
__TBB_SYMBOL( _ZTIN3tbb8internal18pipeline_root_taskE )
__TBB_SYMBOL( _ZTIN3tbb8internal18stack_size_controlE )
__TBB_SYMBOL( _ZTIN3tbb8internal19intrusive_list_nodeE )
__TBB_SYMBOL( _ZTIN3tbb8internal21numa_binding_observerE )
__TBB_SYMBOL( _ZTIN3tbb8internal26task_scheduler_observer_v3E )
__TBB_SYMBOL( _ZTIN3tbb8internal27allowed_parallelism_controlE )
__TBB_SYMBOL( _ZTIN3tbb8internal3rml10tbb_clientE )
__TBB_SYMBOL( _ZTIN3tbb8internal3rml10tbb_serverE )
__TBB_SYMBOL( _ZTIN3tbb8internal3rml14private_serverE )
__TBB_SYMBOL( _ZTIN3tbb8internal6marketE )
__TBB_SYMBOL( _ZTIN3tbb8internal6paddedINS0_15control_storageELm128EEE )
__TBB_SYMBOL( _ZTIN3tbb8internal7no_copyE )
__TBB_SYMBOL( _ZTIN3tbb8internal9no_assignE )
__TBB_SYMBOL( _ZTIN3tbb8internal9schedulerE )
__TBB_SYMBOL( _ZTIN3tbb8internal9task_infoE )
__TBB_SYMBOL( _ZTSN3tbb10interface58internal9task_baseE )
__TBB_SYMBOL( _ZTSN3tbb10interface623task_scheduler_observerE )
__TBB_SYMBOL( _ZTSN3tbb10interface78internal13delegate_baseE )
__TBB_SYMBOL( _ZTSN3tbb10interface78internal14delegated_taskE )
__TBB_SYMBOL( _ZTSN3tbb10interface78internal18delegated_functionINS_4flow11interface105graph13spawn_functorEvEE )
__TBB_SYMBOL( _ZTSN3tbb10interface78internal9wait_taskE )
__TBB_SYMBOL( _ZTSN3tbb8internal10stage_taskE )
__TBB_SYMBOL( _ZTSN3tbb8internal11padded_baseINS0_15control_storageELm128ELm32EEE )
__TBB_SYMBOL( _ZTSN3tbb8internal13function_taskINS_4flow11interface105graph13spawn_functorEEE )
__TBB_SYMBOL( _ZTSN3tbb8internal15control_storageE )
__TBB_SYMBOL( _ZTSN3tbb8internal15scheduler_stateE )
__TBB_SYMBOL( _ZTSN3tbb8internal16custom_schedulerINS0_20IntelSchedulerTraitsEEE )
__TBB_SYMBOL( _ZTSN3tbb8internal16custom_schedulerINS0_22DefaultSchedulerTraitsEEE )
__TBB_SYMBOL( _ZTSN3tbb8internal17generic_schedulerE )
__TBB_SYMBOL( _ZTSN3tbb8internal18pipeline_root_taskE )
__TBB_SYMBOL( _ZTSN3tbb8internal18stack_size_controlE )
__TBB_SYMBOL( _ZTSN3tbb8internal19intrusive_list_nodeE )
__TBB_SYMBOL( _ZTSN3tbb8internal21numa_binding_observerE )
__TBB_SYMBOL( _ZTSN3tbb8internal26task_scheduler_observer_v3E )
__TBB_SYMBOL( _ZTSN3tbb8internal27allowed_parallelism_controlE )
__TBB_SYMBOL( _ZTSN3tbb8internal3rml10tbb_clientE )
__TBB_SYMBOL( _ZTSN3tbb8internal3rml10tbb_serverE )
__TBB_SYMBOL( _ZTSN3tbb8internal3rml14private_serverE )
__TBB_SYMBOL( _ZTSN3tbb8internal6marketE )
__TBB_SYMBOL( _ZTSN3tbb8internal6paddedINS0_15control_storageELm128EEE )
__TBB_SYMBOL( _ZTSN3tbb8internal7no_copyE )
__TBB_SYMBOL( _ZTSN3tbb8internal9no_assignE )
__TBB_SYMBOL( _ZTSN3tbb8internal9schedulerE )
__TBB_SYMBOL( _ZTSN3tbb8internal9task_infoE )
__TBB_SYMBOL( _ZTVN3tbb10interface623task_scheduler_observerE )
__TBB_SYMBOL( _ZTVN3tbb10interface78internal14delegated_taskE )
__TBB_SYMBOL( _ZTVN3tbb10interface78internal9wait_taskE )
__TBB_SYMBOL( _ZTVN3tbb8internal10stage_taskE )
__TBB_SYMBOL( _ZTVN3tbb8internal13function_taskINS_4flow11interface105graph13spawn_functorEEE )
__TBB_SYMBOL( _ZTVN3tbb8internal16custom_schedulerINS0_20IntelSchedulerTraitsEEE )
__TBB_SYMBOL( _ZTVN3tbb8internal16custom_schedulerINS0_22DefaultSchedulerTraitsEEE )
__TBB_SYMBOL( _ZTVN3tbb8internal17generic_schedulerE )
__TBB_SYMBOL( _ZTVN3tbb8internal18pipeline_root_taskE )
__TBB_SYMBOL( _ZTVN3tbb8internal18stack_size_controlE )
__TBB_SYMBOL( _ZTVN3tbb8internal21numa_binding_observerE )
__TBB_SYMBOL( _ZTVN3tbb8internal26task_scheduler_observer_v3E )
__TBB_SYMBOL( _ZTVN3tbb8internal27allowed_parallelism_controlE )
__TBB_SYMBOL( _ZTVN3tbb8internal3rml14private_serverE )
__TBB_SYMBOL( _ZTVN3tbb8internal6marketE )
#undef __TBB_SYMBOL
