/*
    Copyright (c) 2005-2020 Intel Corporation

    Licensed under the Apache License, Version 2.0 (the "License");
    you may not use this file except in compliance with the License.
    You may obtain a copy of the License at

        http://www.apache.org/licenses/LICENSE-2.0

    Unless required by applicable law or agreed to in writing, software
    distributed under the License is distributed on an "AS IS" BASIS,
    WITHOUT WARRANTIES OR CONDITIONS OF ANY KIND, either express or implied.
    See the License for the specific language governing permissions and
    limitations under the License.
*/

{
global:

scalable_calloc;
scalable_free;
scalable_malloc;
scalable_realloc;
scalable_posix_memalign;
scalable_aligned_malloc;
scalable_aligned_realloc;
scalable_aligned_free;
scalable_msize;
scalable_allocation_mode;
scalable_allocation_command;
__TBB_malloc_safer_aligned_msize;
__TBB_malloc_safer_aligned_realloc;
__TBB_malloc_safer_free;
__TBB_malloc_safer_msize;
__TBB_malloc_safer_realloc;

/* memory pool stuff */
_ZN3rml11pool_createElPKNS_13MemPoolPolicyE;
_ZN3rml14pool_create_v1ElPKNS_13MemPoolPolicyEPPNS_10MemoryPoolE;
_ZN3rml10pool_resetEPNS_10MemoryPoolE;
_ZN3rml11pool_mallocEPNS_10MemoryPoolEm;
_ZN3rml12pool_destroyEPNS_10MemoryPoolE;
_ZN3rml9pool_freeEPNS_10MemoryPoolEPv;
_ZN3rml12pool_reallocEPNS_10MemoryPoolEPvm;
_ZN3rml20pool_aligned_reallocEPNS_10MemoryPoolEPvmm;
_ZN3rml19pool_aligned_mallocEPNS_10MemoryPoolEmm;
_ZN3rml13pool_identifyEPv;
_ZN3rml10pool_msizeEPNS_10MemoryPoolEPv;

local:

/* TBB symbols */
_Z28doThreadShutdownNotificationPN3rml8internal7TLSDataEb;
_ZN3rml8internal10BackRefIdx10newBackRefEb;
_ZN3rml8internal10MemoryPool13getEmptyBlockEm;
_ZN3rml8internal10MemoryPool13putToLLOCacheEPNS0_7TLSDataEPv;
_ZN3rml8internal10MemoryPool15getFromLLOCacheEPNS0_7TLSDataEmm;
_ZN3rml8internal10MemoryPool15initDefaultPoolEv;
_ZN3rml8internal10MemoryPool15memPoolListLockE;
_ZN3rml8internal10MemoryPool16onThreadShutdownEPNS0_7TLSDataE;
_ZN3rml8internal10MemoryPool16returnEmptyBlockEPNS0_5BlockEb;
_ZN3rml8internal10MemoryPool18defaultGranularityE;
_ZN3rml8internal10MemoryPool4initElPKNS_13MemPoolPolicyE;
_ZN3rml8internal10MemoryPool5resetEv;
_ZN3rml8internal10MemoryPool7destroyEv;
_ZN3rml8internal10MemoryPool8clearTLSEv;
_ZN3rml8internal10getBackRefENS0_10BackRefIdxE;
_ZN3rml8internal10setBackRefENS0_10BackRefIdxEPv;
_ZN3rml8internal11UnmapMemoryEPvm;
_ZN3rml8internal12CoalRequestQ6getAllEv;
_ZN3rml8internal12CoalRequestQ8putBlockEPNS0_9FreeBlockE;
_ZN3rml8internal12StartupBlock4freeEPv;
_ZN3rml8internal12StartupBlock8allocateEm;
_ZN3rml8internal12StartupBlock8getBlockEv;
_ZN3rml8internal12getRawMemoryEmNS0_8PageTypeE;
_ZN3rml8internal13BackRefMaster13findFreeBlockEv;
_ZN3rml8internal13BackRefMaster15addToForUseListEPNS0_12BackRefBlockE;
_ZN3rml8internal13BackRefMaster15requestNewSpaceEv;
_ZN3rml8internal13BackRefMaster21initEmptyBackRefBlockEPNS0_12BackRefBlockE;
_ZN3rml8internal13BackRefMaster6dataSzE;
_ZN3rml8internal13ExtMemoryPool15freeLargeObjectEPNS0_16LargeMemoryBlockE;
_ZN3rml8internal13ExtMemoryPool17hardCachesCleanupEv;
_ZN3rml8internal13ExtMemoryPool17mallocLargeObjectEPNS0_10MemoryPoolEm;
_ZN3rml8internal13ExtMemoryPool17softCachesCleanupEv;
_ZN3rml8internal13ExtMemoryPool19freeLargeObjectListEPNS0_16LargeMemoryBlockE;
_ZN3rml8internal13ExtMemoryPool21releaseAllLocalCachesEv;
_ZN3rml8internal13ExtMemoryPool4initElPFPvlRmEPFilS2_mEmbb;
_ZN3rml8internal13ExtMemoryPool5remapEPvmmm;
_ZN3rml8internal13ExtMemoryPool7initTLSEv;
_ZN3rml8internal13FreeBlockPool11returnBlockEPNS0_5BlockE;
_ZN3rml8internal13FreeBlockPool15externalCleanupEv;
_ZN3rml8internal13FreeBlockPool8getBlockEv;
_ZN3rml8internal13MemRegionList3addEPNS0_9MemRegionE;
_ZN3rml8internal13MemRegionList6removeEPNS0_9MemRegionE;
_ZN3rml8internal13freeRawMemoryEPvm;
_ZN3rml8internal13removeBackRefENS0_10BackRefIdxE;
_ZN3rml8internal14AllLocalCaches10markUnusedEv;
_ZN3rml8internal14AllLocalCaches14registerThreadEPNS0_9TLSRemoteE;
_ZN3rml8internal14AllLocalCaches16unregisterThreadEPNS0_9TLSRemoteE;
_ZN3rml8internal14AllLocalCaches7cleanupEb;
_ZN3rml8internal14OrphanedBlocks3getEPNS0_7TLSDataEj;
_ZN3rml8internal14OrphanedBlocks3putElPNS0_5BlockE;
_ZN3rml8internal14OrphanedBlocks5resetEv;
_ZN3rml8internal14OrphanedBlocks7cleanupEPNS0_7BackendE;
_ZN3rml8internal14init_tbbmallocEv;
_ZN3rml8internal15BootStrapBlocks4freeEPv;
_ZN3rml8internal15BootStrapBlocks5resetEv;
_ZN3rml8internal15BootStrapBlocks8allocateEPNS0_10MemoryPoolEm;
_ZN3rml8internal15CacheBinFunctorINS0_21LargeObjectCachePropsINS0_21HugeBinStructurePropsILm8388608ELm1099511627776EEELi1ELi1ELi4EEEE21OperationPreprocessorclEPNS0_17CacheBinOperationE;
_ZN3rml8internal15CacheBinFunctorINS0_21LargeObjectCachePropsINS0_21HugeBinStructurePropsILm8388608ELm1099511627776EEELi1ELi1ELi4EEEEclEPNS0_17CacheBinOperationE;
_ZN3rml8internal15CacheBinFunctorINS0_21LargeObjectCachePropsINS0_22LargeBinStructurePropsILm8192ELm8388608EEELi2ELi2ELi16EEEE21OperationPreprocessorclEPNS0_17CacheBinOperationE;
_ZN3rml8internal15CacheBinFunctorINS0_21LargeObjectCachePropsINS0_22LargeBinStructurePropsILm8192ELm8388608EEELi2ELi2ELi16EEEEclEPNS0_17CacheBinOperationE;
_ZN3rml8internal15HugePagesStatus18parseSystemMemInfoEv;
_ZN3rml8internal15HugePagesStatus4initEv;
_ZN3rml8internal16LargeObjectCache10alignToBinEm;
_ZN3rml8internal16LargeObjectCache11getCurrTimeEv;
_ZN3rml8internal16LargeObjectCache14regularCleanupEv;
_ZN3rml8internal16LargeObjectCache15registerReallocEmm;
_ZN3rml8internal16LargeObjectCache16getCurrTimeRangeEm;
_ZN3rml8internal16LargeObjectCache16sizeInCacheRangeEm;
_ZN3rml8internal16LargeObjectCache16updateCacheStateENS0_18DecreaseOrIncreaseEm;
_ZN3rml8internal16LargeObjectCache17decreasingCleanupEv;
_ZN3rml8internal16LargeObjectCache20setHugeSizeThresholdEm;
_ZN3rml8internal16LargeObjectCache3getEm;
_ZN3rml8internal16LargeObjectCache3putEPNS0_16LargeMemoryBlockE;
_ZN3rml8internal16LargeObjectCache4initEPNS0_13ExtMemoryPoolE;
_ZN3rml8internal16LargeObjectCache5resetEv;
_ZN3rml8internal16LargeObjectCache7putListEPNS0_16LargeMemoryBlockE;
_ZN3rml8internal16LargeObjectCache8cleanAllEv;
_ZN3rml8internal16LargeObjectCache9doCleanupEmb;
_ZN3rml8internal16LargeObjectCache9sizeToIdxEm;
_ZN3rml8internal17assertion_failureEPKciS2_S2_;
_ZN3rml8internal17initBackRefMasterEPNS0_7BackendE;
_ZN3rml8internal18AllLargeBlocksList3addEPNS0_16LargeMemoryBlockE;
_ZN3rml8internal18AllLargeBlocksList6removeEPNS0_16LargeMemoryBlockE;
_ZN3rml8internal18minLargeObjectSizeE;
_ZN3rml8internal19getSmallObjectIndexILb0EEEjj;
_ZN3rml8internal20LargeObjectCacheImplINS0_21LargeObjectCachePropsINS0_21HugeBinStructurePropsILm8388608ELm1099511627776EEELi1ELi1ELi4EEEE14regularCleanupEPNS0_13ExtMemoryPoolEmb;
_ZN3rml8internal20LargeObjectCacheImplINS0_21LargeObjectCachePropsINS0_21HugeBinStructurePropsILm8388608ELm1099511627776EEELi1ELi1ELi4EEEE8CacheBin16ExecuteOperationEPNS0_17CacheBinOperationEPNS0_13ExtMemoryPoolEPNS0_10BitMaskMaxILj136EEEib;
_ZN3rml8internal20LargeObjectCacheImplINS0_21LargeObjectCachePropsINS0_22LargeBinStructurePropsILm8192ELm8388608EEELi2ELi2ELi16EEEE14regularCleanupEPNS0_13ExtMemoryPoolEmb;
_ZN3rml8internal20LargeObjectCacheImplINS0_21LargeObjectCachePropsINS0_22LargeBinStructurePropsILm8192ELm8388608EEELi2ELi2ELi16EEEE8CacheBin16ExecuteOperationEPNS0_17CacheBinOperationEPNS0_13ExtMemoryPoolEPNS0_10BitMaskMaxILj1023EEEib;
_ZN3rml8internal20LargeObjectCacheImplINS0_21LargeObjectCachePropsINS0_22LargeBinStructurePropsILm8192ELm8388608EEELi2ELi2ELi16EEEE8CacheBin16cleanToThresholdEPNS0_13ExtMemoryPoolEPNS0_10BitMaskMaxILj1023EEEmi;
_ZN3rml8internal20destroyBackRefMasterEPNS0_7BackendE;
_ZN3rml8internal21ErrnoPreservingMallocEm;
_ZN3rml8internal21set_assertion_handlerEPFvPKciS2_S2_E;
_ZN3rml8internal22isMallocInitializedExtEv;
_ZN3rml8internal28RecursiveMallocCallProtector10autoObjPtrE;
_ZN3rml8internal28RecursiveMallocCallProtector11noRecursionEv;
_ZN3rml8internal28RecursiveMallocCallProtector12owner_threadE;
_ZN3rml8internal28RecursiveMallocCallProtector23mallocRecursionDetectedE;
_ZN3rml8internal28RecursiveMallocCallProtector9rmc_mutexE;
_ZN3rml8internal35RegisterProcessShutdownNotificationD2Ev;
_ZN3rml8internal3Bin10pushTLSBinEPNS0_5BlockE;
_ZN3rml8internal3Bin11outofTLSBinEPNS0_5BlockE;
_ZN3rml8internal3Bin16moveBlockToFrontEPNS0_5BlockE;
_ZN3rml8internal3Bin17processEmptyBlockEPNS0_5BlockEb;
_ZN3rml8internal3Bin20cleanPublicFreeListsEv;
_ZN3rml8internal3Bin22addPublicFreeListBlockEPNS0_5BlockE;
_ZN3rml8internal3Bin26getPrivatizedFreeListBlockEv;
_ZN3rml8internal5Block12readyToShareEv;
_ZN3rml8internal5Block13freeOwnObjectEPv;
_ZN3rml8internal5Block13shareOrphanedElj;
_ZN3rml8internal5Block14initEmptyBlockEPNS0_7TLSDataEm;
_ZN3rml8internal5Block14restoreBumpPtrEv;
_ZN3rml8internal5Block16cleanBlockHeaderEv;
_ZN3rml8internal5Block16emptyEnoughRatioE;
_ZN3rml8internal5Block16freePublicObjectEPNS0_10FreeObjectE;
_ZN3rml8internal5Block17privatizeOrphanedEPNS0_7TLSDataEj;
_ZN3rml8internal5Block19adjustPositionInBinEPNS0_3BinE;
_ZN3rml8internal5Block23privatizePublicFreeListEb;
_ZN3rml8internal5Block5resetEv;
_ZN3rml8internal6TLSKey4initEv;
_ZN3rml8internal6TLSKey7destroyEv;
_ZN3rml8internal6TLSKey9createTLSEPNS0_10MemoryPoolEPNS0_7BackendE;
_ZN3rml8internal7Backend10freeRawMemEPvm;
_ZN3rml8internal7Backend10splitBlockEPNS0_9FreeBlockEimbb;
_ZN3rml8internal7Backend11IndexedBins10getFromBinEiPNS0_11BackendSyncEmbbbPi;
_ZN3rml8internal7Backend11IndexedBins11tryAddBlockEiPNS0_9FreeBlockEb;
_ZN3rml8internal7Backend11IndexedBins15lockRemoveBlockEiPNS0_9FreeBlockE;
_ZN3rml8internal7Backend11IndexedBins17tryReleaseRegionsEiPS1_;
_ZN3rml8internal7Backend11IndexedBins5resetEv;
_ZN3rml8internal7Backend11IndexedBins6verifyEv;
_ZN3rml8internal7Backend11IndexedBins8addBlockEiPNS0_9FreeBlockEmb;
_ZN3rml8internal7Backend11IndexedBins9findBlockEiPNS0_11BackendSyncEmbbPi;
_ZN3rml8internal7Backend11allocRawMemERm;
_ZN3rml8internal7Backend12addNewRegionEmNS0_13MemRegionTypeEb;
_ZN3rml8internal7Backend12askMemFromOSEmlPiiPbb;
_ZN3rml8internal7Backend12getSlabBlockEi;
_ZN3rml8internal7Backend12putSlabBlockEPNS0_6BlockIE;
_ZN3rml8internal7Backend12scanCoalescQEb;
_ZN3rml8internal7Backend13coalescAndPutEPNS0_9FreeBlockEmb;
_ZN3rml8internal7Backend13getLargeBlockEm;
_ZN3rml8internal7Backend13putLargeBlockEPNS0_16LargeMemoryBlockE;
_ZN3rml8internal7Backend13releaseRegionEPNS0_9MemRegionE;
_ZN3rml8internal7Backend13startUseBlockEPNS0_9MemRegionEPNS0_9FreeBlockEb;
_ZN3rml8internal7Backend15genericGetBlockEimb;
_ZN3rml8internal7Backend15genericPutBlockEPNS0_9FreeBlockEmb;
_ZN3rml8internal7Backend15getBackRefSpaceEmPb;
_ZN3rml8internal7Backend15putBackRefSpaceEPvmb;
_ZN3rml8internal7Backend16UsedAddressRange12registerFreeEmm;
_ZN3rml8internal7Backend16UsedAddressRange13registerAllocEmm;
_ZN3rml8internal7Backend17coalescAndPutListEPNS0_9FreeBlockEbb;
_ZN3rml8internal7Backend17findBlockInRegionEPNS0_9MemRegionEm;
_ZN3rml8internal7Backend17returnLargeObjectEPNS0_16LargeMemoryBlockE;
_ZN3rml8internal7Backend18releaseMemInCachesElPii;
_ZN3rml8internal7Backend18removeBlockFromBinEPNS0_9FreeBlockE;
_ZN3rml8internal7Backend19requestBootstrapMemEv;
_ZN3rml8internal7Backend20releaseCachesToLimitEv;
_ZN3rml8internal7Backend3Bin11removeBlockEPNS0_9FreeBlockE;
_ZN3rml8internal7Backend4initEPNS0_13ExtMemoryPoolE;
_ZN3rml8internal7Backend5cleanEv;
_ZN3rml8internal7Backend5remapEPvmmm;
_ZN3rml8internal7Backend5resetEv;
_ZN3rml8internal7Backend6verifyEv;
_ZN3rml8internal7Backend7destroyEv;
_ZN3rml8internal7Backend9doCoalescEPNS0_9FreeBlockEPPNS0_9MemRegionE;
_ZN3rml8internal7TLSData15externalCleanupEbb;
_ZN3rml8internal7TLSData16cleanupBlockBinsEv;
_ZN3rml8internal7TLSData7releaseEv;
_ZN3rml8internal9FreeBlock12minBlockSizeE;
_ZN3rml8internal9MapMemoryEmNS0_8PageTypeE;
_ZN3rml8internal9hugePagesE;
_ZNK3rml8internal5Block14findObjectSizeEPv;
_ZNK3rml8internal7Backend11IndexedBins17getMinNonemptyBinEj;
_ZNK3rml8internal7Backend16getMaxBinnedSizeEv;
_ZZN3rml8internal7mmapTHPEmE4hint;
*3tbb*;
__TBB_mallocProcessShutdownNotification;
__itt_*;
ITT_DoOneTimeInitialization;
TBB_runtime_interface_version;

/* Intel Compiler (libirc) symbols */
__intel_*;
_intel_*;
get_memcpy_largest_cachelinesize;
get_memcpy_largest_cache_size;
get_mem_ops_method;
init_mem_ops_method;
irc__get_msg;
irc__print;
override_mem_ops_method;
set_memcpy_largest_cachelinesize;
set_memcpy_largest_cache_size;

};
